Certificate:
    Data:
        Version: 3 (0x2)
        Serial Number:
            09:c4:98:04:74:5d:90:cd:5a:1b:08:5c:c5:23:8a:41
        Signature Algorithm: sha256WithRSAEncryption
        Issuer: CN=Easy-RSA CA
        Validity
            Not Before: Jan 30 10:22:18 2025 GMT
            Not After : May  5 10:22:18 2027 GMT
        Subject: CN=botnat-32736.portmap.host
        Subject Public Key Info:
            Public Key Algorithm: rsaEncryption
                RSA Public-Key: (2048 bit)
                Modulus:
                    00:cb:fd:9d:92:79:3b:a7:72:df:5d:64:48:10:75:
                    b9:59:cd:be:b1:36:02:72:d6:27:d2:7d:1e:36:df:
                    60:ee:14:1c:73:51:f9:fb:87:ac:08:87:61:5f:8b:
                    23:7f:08:4c:f3:20:7e:56:31:e1:b5:72:0a:a1:4d:
                    16:5a:16:d0:85:4a:2d:3c:86:38:63:46:b3:7b:75:
                    e4:f7:c6:1e:bf:d9:3d:fe:06:9f:b5:3f:99:6a:a0:
                    83:ea:9a:21:20:b4:11:2c:d1:de:df:d4:ff:56:fe:
                    22:d9:70:75:a1:0c:a5:92:b4:89:6f:73:96:3d:42:
                    ff:11:b2:27:44:85:a1:b7:ab:97:f9:91:59:6e:31:
                    94:84:1e:a8:3c:32:60:6f:5c:8f:1b:13:b0:98:bd:
                    fc:9c:bb:51:e3:21:59:52:5e:d6:6e:09:f2:38:d0:
                    34:be:33:a7:5d:fc:cc:88:f0:c6:1a:5e:1b:6d:b9:
                    97:84:7f:c2:22:a6:19:1f:26:1e:d8:87:fd:21:5a:
                    1b:04:d8:8f:9e:d8:7e:0c:b1:7f:74:fd:d0:52:08:
                    b3:f5:7c:24:86:ae:27:2b:ba:74:e6:8d:3e:53:cc:
                    29:40:47:4a:5d:8d:42:14:21:e0:06:c6:11:b2:cc:
                    1f:ab:82:37:04:ad:a1:2d:da:29:5c:2a:39:e4:bb:
                    6d:31
                Exponent: 65537 (0x10001)
        X509v3 extensions:
            X509v3 Basic Constraints: 
                CA:FALSE
            X509v3 Subject Key Identifier: 
                3C:B7:A8:D7:8A:05:9C:52:00:EA:6C:C7:5C:81:04:B8:03:86:3C:B1
            X509v3 Authority Key Identifier: 
                keyid:1D:34:1A:B5:77:92:11:9C:F6:76:73:5C:03:C0:DA:A6:EF:CA:CA:05
                DirName:/CN=Easy-RSA CA
                serial:39:BD:DD:C5:52:F3:98:4E:1D:67:41:A1:56:16:74:AC:23:60:BC:22

            X509v3 Extended Key Usage: 
                TLS Web Server Authentication
            X509v3 Key Usage: 
                Digital Signature, Key Encipherment
            X509v3 Subject Alternative Name: 
                DNS:botnat-32736.portmap.host
    Signature Algorithm: sha256WithRSAEncryption
         a7:d1:b4:93:2f:bd:1b:bc:53:fe:55:35:57:29:d5:7d:74:e1:
         67:bf:0e:e2:df:ab:3f:32:42:92:dc:e9:bf:5b:23:cc:30:3a:
         52:b0:2d:a7:d0:21:63:91:cf:0f:1d:37:55:2d:fc:68:ec:41:
         b3:0b:38:2f:ce:03:da:5a:68:55:64:24:b4:15:64:b3:05:1a:
         ff:89:22:7f:b9:9c:f9:fd:94:e4:c4:91:7d:ea:23:6c:fd:12:
         77:c0:23:80:b5:2f:15:f4:dc:de:41:72:35:93:90:55:69:8f:
         36:6a:1a:34:04:65:c8:c7:e0:68:c8:32:c0:68:08:d4:77:d8:
         58:f0:56:aa:f2:2f:ee:76:ec:7d:c8:cf:3a:bd:0d:94:ed:3e:
         fc:f2:0a:b5:48:18:24:bb:38:fc:ac:37:c2:a7:6f:43:b1:97:
         4b:df:cb:5a:51:7a:f5:b6:ca:e7:89:10:b3:0d:94:f8:f3:ed:
         30:cd:bf:cf:a8:c4:c0:6e:2d:2c:44:a7:50:17:ab:26:b5:87:
         9a:6d:1a:47:8c:da:e3:fc:a2:86:12:8b:c6:8a:25:49:ec:9a:
         58:7d:00:fe:bc:9c:be:d8:f8:01:4e:48:4a:58:ce:23:5f:c1:
         fa:0c:f1:d8:63:25:a4:dd:a1:9a:02:05:7f:8c:18:ed:96:70:
         af:d6:60:3f
-----BEGIN CERTIFICATE-----
MIIDjTCCAnWgAwIBAgIQCcSYBHRdkM1aGwhcxSOKQTANBgkqhkiG9w0BAQsFADAW
MRQwEgYDVQQDDAtFYXN5LVJTQSBDQTAeFw0yNTAxMzAxMDIyMThaFw0yNzA1MDUx
MDIyMThaMCQxIjAgBgNVBAMMGWJvdG5hdC0zMjczNi5wb3J0bWFwLmhvc3QwggEi
MA0GCSqGSIb3DQEBAQUAA4IBDwAwggEKAoIBAQDL/Z2SeTunct9dZEgQdblZzb6x
NgJy1ifSfR4232DuFBxzUfn7h6wIh2FfiyN/CEzzIH5WMeG1cgqhTRZaFtCFSi08
hjhjRrN7deT3xh6/2T3+Bp+1P5lqoIPqmiEgtBEs0d7f1P9W/iLZcHWhDKWStIlv
c5Y9Qv8RsidEhaG3q5f5kVluMZSEHqg8MmBvXI8bE7CYvfycu1HjIVlSXtZuCfI4
0DS+M6dd/MyI8MYaXhttuZeEf8IiphkfJh7Yh/0hWhsE2I+e2H4MsX90/dBSCLP1
fCSGricrunTmjT5TzClAR0pdjUIUIeAGxhGyzB+rgjcEraEt2ilcKjnku20xAgMB
AAGjgcgwgcUwCQYDVR0TBAIwADAdBgNVHQ4EFgQUPLeo14oFnFIA6mzHXIEEuAOG
PLEwUQYDVR0jBEowSIAUHTQatXeSEZz2dnNcA8Dapu/KygWhGqQYMBYxFDASBgNV
BAMMC0Vhc3ktUlNBIENBghQ5vd3FUvOYTh1nQaFWFnSsI2C8IjATBgNVHSUEDDAK
BggrBgEFBQcDATALBgNVHQ8EBAMCBaAwJAYDVR0RBB0wG4IZYm90bmF0LTMyNzM2
LnBvcnRtYXAuaG9zdDANBgkqhkiG9w0BAQsFAAOCAQEAp9G0ky+9G7xT/lU1VynV
fXThZ78O4t+rPzJCktzpv1sjzDA6UrAtp9AhY5HPDx03VS38aOxBsws4L84D2lpo
VWQktBVkswUa/4kif7mc+f2U5MSRfeojbP0Sd8AjgLUvFfTc3kFyNZOQVWmPNmoa
NARlyMfgaMgywGgI1HfYWPBWqvIv7nbsfcjPOr0NlO0+/PIKtUgYJLs4/Kw3wqdv
Q7GXS9/LWlF69bbK54kQsw2U+PPtMM2/z6jEwG4tLESnUBerJrWHmm0aR4za4/yi
hhKLxoolSeyaWH0A/rycvtj4AU5ISljOI1/B+gzx2GMlpN2hmgIFf4wY7ZZwr9Zg
Pw==
-----END CERTIFICATE-----
